target datalayout = "e-m:e-p270:32:32-p271:32:32-p272:64:64-i64:64-i128:128-f80:128-n8:16:32:64-S128"
target triple = "x86_64-pc-linux-gnu"

%struct.H5O_efl_t = type { i64, i64, i64, ptr }
%struct.H5O_efl_entry_t = type { i64, ptr, i64, i64 }

@H5O_init_g = external global i8, align 1
@H5_libterm_g = external global i8, align 1
@.str.20 = private unnamed_addr constant [1 x i8] zeroinitializer, align 1
@.str.23 = private unnamed_addr constant [13 x i8] c"%*s%-*s %lu\0A\00", align 1
@.str.24 = private unnamed_addr constant [14 x i8] c"Heap address:\00", align 1
@.str.25 = private unnamed_addr constant [17 x i8] c"%*s%-*s %zu/%zu\0A\00", align 1
@.str.26 = private unnamed_addr constant [22 x i8] c"Slots used/allocated:\00", align 1
@.str.27 = private unnamed_addr constant [9 x i8] c"File %zu\00", align 1
@.str.28 = private unnamed_addr constant [8 x i8] c"%*s%s:\0A\00", align 1
@.str.29 = private unnamed_addr constant [14 x i8] c"%*s%-*s \22%s\22\0A\00", align 1
@.str.30 = private unnamed_addr constant [6 x i8] c"Name:\00", align 1
@.str.31 = private unnamed_addr constant [13 x i8] c"%*s%-*s %zu\0A\00", align 1
@.str.32 = private unnamed_addr constant [13 x i8] c"Name offset:\00", align 1
@.str.33 = private unnamed_addr constant [13 x i8] c"%*s%-*s %ld\0A\00", align 1
@.str.34 = private unnamed_addr constant [24 x i8] c"Offset of data in file:\00", align 1
@.str.35 = private unnamed_addr constant [25 x i8] c"Bytes reserved for data:\00", align 1

; Function Attrs: nounwind uwtable
define internal i32 @H5O__efl_debug(ptr noundef %0, ptr noundef %1, ptr noundef %2, i32 noundef %3, i32 noundef %4) #0 {
  %6 = alloca ptr, align 8
  %7 = alloca ptr, align 8
  %8 = alloca ptr, align 8
  %9 = alloca i32, align 4
  %10 = alloca i32, align 4
  %11 = alloca ptr, align 8
  %12 = alloca i64, align 8
  %13 = alloca [64 x i8], align 16
  store ptr %0, ptr %6, align 8, !tbaa !3
  store ptr %1, ptr %7, align 8, !tbaa !22
  store ptr %2, ptr %8, align 8, !tbaa !64
  store i32 %3, ptr %9, align 4, !tbaa !10
  store i32 %4, ptr %10, align 4, !tbaa !10
  call void @llvm.lifetime.start.p0(i64 8, ptr %11) #8
  %14 = load ptr, ptr %7, align 8, !tbaa !22
  store ptr %14, ptr %11, align 8, !tbaa !18
  call void @llvm.lifetime.start.p0(i64 8, ptr %12) #8
  %15 = load i8, ptr @H5O_init_g, align 1, !tbaa !23, !range !25, !noundef !26
  %16 = trunc i8 %15 to i1
  br i1 %16, label %21, label %17

17:                                               ; preds = %5
  %18 = load i8, ptr @H5_libterm_g, align 1, !tbaa !23, !range !25, !noundef !26
  %19 = trunc i8 %18 to i1
  %20 = xor i1 %19, true
  br label %21

21:                                               ; preds = %17, %5
  %22 = phi i1 [ true, %5 ], [ %20, %17 ]
  %23 = xor i1 %22, true
  %24 = xor i1 %23, true
  %25 = zext i1 %24 to i32
  %26 = sext i32 %25 to i64
  %27 = call i64 @llvm.expect.i64(i64 %26, i64 1)
  %28 = icmp ne i64 %27, 0
  br i1 %28, label %29, label %145

29:                                               ; preds = %21
  %30 = load ptr, ptr %8, align 8, !tbaa !64
  %31 = load i32, ptr %9, align 4, !tbaa !10
  %32 = load i32, ptr %10, align 4, !tbaa !10
  %33 = load ptr, ptr %11, align 8, !tbaa !18
  %34 = getelementptr inbounds nuw %struct.H5O_efl_t, ptr %33, i32 0, i32 0
  %35 = load i64, ptr %34, align 8, !tbaa !32
  %36 = call i32 (ptr, ptr, ...) @fprintf(ptr noundef %30, ptr noundef @.str.23, i32 noundef %31, ptr noundef @.str.20, i32 noundef %32, ptr noundef @.str.24, i64 noundef %35) #8
  %37 = load ptr, ptr %8, align 8, !tbaa !64
  %38 = load i32, ptr %9, align 4, !tbaa !10
  %39 = load i32, ptr %10, align 4, !tbaa !10
  %40 = load ptr, ptr %11, align 8, !tbaa !18
  %41 = getelementptr inbounds nuw %struct.H5O_efl_t, ptr %40, i32 0, i32 2
  %42 = load i64, ptr %41, align 8, !tbaa !31
  %43 = load ptr, ptr %11, align 8, !tbaa !18
  %44 = getelementptr inbounds nuw %struct.H5O_efl_t, ptr %43, i32 0, i32 1
  %45 = load i64, ptr %44, align 8, !tbaa !28
  %46 = call i32 (ptr, ptr, ...) @fprintf(ptr noundef %37, ptr noundef @.str.25, i32 noundef %38, ptr noundef @.str.20, i32 noundef %39, ptr noundef @.str.26, i64 noundef %42, i64 noundef %45) #8
  store i64 0, ptr %12, align 8, !tbaa !14
  br label %47

47:                                               ; preds = %141, %29
  %48 = load i64, ptr %12, align 8, !tbaa !14
  %49 = load ptr, ptr %11, align 8, !tbaa !18
  %50 = getelementptr inbounds nuw %struct.H5O_efl_t, ptr %49, i32 0, i32 2
  %51 = load i64, ptr %50, align 8, !tbaa !31
  %52 = icmp ult i64 %48, %51
  br i1 %52, label %53, label %144

53:                                               ; preds = %47
  call void @llvm.lifetime.start.p0(i64 64, ptr %13) #8
  %54 = getelementptr inbounds [64 x i8], ptr %13, i64 0, i64 0
  %55 = load i64, ptr %12, align 8, !tbaa !14
  %56 = call i32 (ptr, i64, ptr, ...) @snprintf(ptr noundef %54, i64 noundef 64, ptr noundef @.str.27, i64 noundef %55) #8
  %57 = load ptr, ptr %8, align 8, !tbaa !64
  %58 = load i32, ptr %9, align 4, !tbaa !10
  %59 = getelementptr inbounds [64 x i8], ptr %13, i64 0, i64 0
  %60 = call i32 (ptr, ptr, ...) @fprintf(ptr noundef %57, ptr noundef @.str.28, i32 noundef %58, ptr noundef @.str.20, ptr noundef %59) #8
  %61 = load ptr, ptr %8, align 8, !tbaa !64
  %62 = load i32, ptr %9, align 4, !tbaa !10
  %63 = add nsw i32 %62, 3
  %64 = load i32, ptr %10, align 4, !tbaa !10
  %65 = sub nsw i32 %64, 3
  %66 = icmp sgt i32 %65, 0
  br i1 %66, label %67, label %70

67:                                               ; preds = %53
  %68 = load i32, ptr %10, align 4, !tbaa !10
  %69 = sub nsw i32 %68, 3
  br label %71

70:                                               ; preds = %53
  br label %71

71:                                               ; preds = %70, %67
  %72 = phi i32 [ %69, %67 ], [ 0, %70 ]
  %73 = load ptr, ptr %11, align 8, !tbaa !18
  %74 = getelementptr inbounds nuw %struct.H5O_efl_t, ptr %73, i32 0, i32 3
  %75 = load ptr, ptr %74, align 8, !tbaa !33
  %76 = load i64, ptr %12, align 8, !tbaa !14
  %77 = getelementptr inbounds nuw %struct.H5O_efl_entry_t, ptr %75, i64 %76
  %78 = getelementptr inbounds nuw %struct.H5O_efl_entry_t, ptr %77, i32 0, i32 1
  %79 = load ptr, ptr %78, align 8, !tbaa !38
  %80 = call i32 (ptr, ptr, ...) @fprintf(ptr noundef %61, ptr noundef @.str.29, i32 noundef %63, ptr noundef @.str.20, i32 noundef %72, ptr noundef @.str.30, ptr noundef %79) #8
  %81 = load ptr, ptr %8, align 8, !tbaa !64
  %82 = load i32, ptr %9, align 4, !tbaa !10
  %83 = add nsw i32 %82, 3
  %84 = load i32, ptr %10, align 4, !tbaa !10
  %85 = sub nsw i32 %84, 3
  %86 = icmp sgt i32 %85, 0
  br i1 %86, label %87, label %90

87:                                               ; preds = %71
  %88 = load i32, ptr %10, align 4, !tbaa !10
  %89 = sub nsw i32 %88, 3
  br label %91

90:                                               ; preds = %71
  br label %91

91:                                               ; preds = %90, %87
  %92 = phi i32 [ %89, %87 ], [ 0, %90 ]
  %93 = load ptr, ptr %11, align 8, !tbaa !18
  %94 = getelementptr inbounds nuw %struct.H5O_efl_t, ptr %93, i32 0, i32 3
  %95 = load ptr, ptr %94, align 8, !tbaa !33
  %96 = load i64, ptr %12, align 8, !tbaa !14
  %97 = getelementptr inbounds nuw %struct.H5O_efl_entry_t, ptr %95, i64 %96
  %98 = getelementptr inbounds nuw %struct.H5O_efl_entry_t, ptr %97, i32 0, i32 0
  %99 = load i64, ptr %98, align 8, !tbaa !34
  %100 = call i32 (ptr, ptr, ...) @fprintf(ptr noundef %81, ptr noundef @.str.31, i32 noundef %83, ptr noundef @.str.20, i32 noundef %92, ptr noundef @.str.32, i64 noundef %99) #8
  %101 = load ptr, ptr %8, align 8, !tbaa !64
  %102 = load i32, ptr %9, align 4, !tbaa !10
  %103 = add nsw i32 %102, 3
  %104 = load i32, ptr %10, align 4, !tbaa !10
  %105 = sub nsw i32 %104, 3
  %106 = icmp sgt i32 %105, 0
  br i1 %106, label %107, label %110

107:                                              ; preds = %91
  %108 = load i32, ptr %10, align 4, !tbaa !10
  %109 = sub nsw i32 %108, 3
  br label %111

110:                                              ; preds = %91
  br label %111

111:                                              ; preds = %110, %107
  %112 = phi i32 [ %109, %107 ], [ 0, %110 ]
  %113 = load ptr, ptr %11, align 8, !tbaa !18
  %114 = getelementptr inbounds nuw %struct.H5O_efl_t, ptr %113, i32 0, i32 3
  %115 = load ptr, ptr %114, align 8, !tbaa !33
  %116 = load i64, ptr %12, align 8, !tbaa !14
  %117 = getelementptr inbounds nuw %struct.H5O_efl_entry_t, ptr %115, i64 %116
  %118 = getelementptr inbounds nuw %struct.H5O_efl_entry_t, ptr %117, i32 0, i32 2
  %119 = load i64, ptr %118, align 8, !tbaa !40
  %120 = call i32 (ptr, ptr, ...) @fprintf(ptr noundef %101, ptr noundef @.str.33, i32 noundef %103, ptr noundef @.str.20, i32 noundef %112, ptr noundef @.str.34, i64 noundef %119) #8
  %121 = load ptr, ptr %8, align 8, !tbaa !64
  %122 = load i32, ptr %9, align 4, !tbaa !10
  %123 = add nsw i32 %122, 3
  %124 = load i32, ptr %10, align 4, !tbaa !10
  %125 = sub nsw i32 %124, 3
  %126 = icmp sgt i32 %125, 0
  br i1 %126, label %127, label %130

127:                                              ; preds = %111
  %128 = load i32, ptr %10, align 4, !tbaa !10
  %129 = sub nsw i32 %128, 3
  br label %131

130:                                              ; preds = %111
  br label %131

131:                                              ; preds = %130, %127
  %132 = phi i32 [ %129, %127 ], [ 0, %130 ]
  %133 = load ptr, ptr %11, align 8, !tbaa !18
  %134 = getelementptr inbounds nuw %struct.H5O_efl_t, ptr %133, i32 0, i32 3
  %135 = load ptr, ptr %134, align 8, !tbaa !33
  %136 = load i64, ptr %12, align 8, !tbaa !14
  %137 = getelementptr inbounds nuw %struct.H5O_efl_entry_t, ptr %135, i64 %136
  %138 = getelementptr inbounds nuw %struct.H5O_efl_entry_t, ptr %137, i32 0, i32 3
  %139 = load i64, ptr %138, align 8, !tbaa !41
  %140 = call i32 (ptr, ptr, ...) @fprintf(ptr noundef %121, ptr noundef @.str.23, i32 noundef %123, ptr noundef @.str.20, i32 noundef %132, ptr noundef @.str.35, i64 noundef %139) #8
  call void @llvm.lifetime.end.p0(i64 64, ptr %13) #8
  br label %141

141:                                              ; preds = %131
  %142 = load i64, ptr %12, align 8, !tbaa !14
  %143 = add i64 %142, 1
  store i64 %143, ptr %12, align 8, !tbaa !14
  br label %47, !llvm.loop !66

144:                                              ; preds = %47
  br label %145

145:                                              ; preds = %144, %21
  call void @llvm.lifetime.end.p0(i64 8, ptr %12) #8
  call void @llvm.lifetime.end.p0(i64 8, ptr %11) #8
  ret i32 0
}