; Function Attrs: nofree nounwind uwtable
define internal noundef i32 @H5O__efl_debug(ptr readnone captures(none) %0, ptr noundef readonly captures(none) %1, ptr noundef captures(none) %2, i32 noundef %3, i32 noundef %4) #1 {
  %6 = alloca [64 x i8], align 16
  %7 = load i8, ptr @H5O_init_g, align 1, !tbaa !8, !range !10, !noundef !11
  %8 = trunc nuw i8 %7 to i1
  %9 = load i8, ptr @H5_libterm_g, align 1, !range !10
  %10 = trunc nuw i8 %9 to i1
  %11 = xor i1 %10, true
  %12 = select i1 %8, i1 true, i1 %11
  br i1 %12, label %13, label %.loopexit, !prof !12

13:                                               ; preds = %5
  %14 = load i64, ptr %1, align 8, !tbaa !20
  %15 = tail call i32 (ptr, ptr, ...) @fprintf(ptr noundef %2, ptr noundef nonnull @.str.23, i32 noundef %3, ptr noundef nonnull @.str.20, i32 noundef %4, ptr noundef nonnull @.str.24, i64 noundef %14) #11
  %16 = getelementptr inbounds nuw i8, ptr %1, i64 16
  %17 = load i64, ptr %16, align 8, !tbaa !19
  %18 = getelementptr inbounds nuw i8, ptr %1, i64 8
  %19 = load i64, ptr %18, align 8, !tbaa !16
  %20 = tail call i32 (ptr, ptr, ...) @fprintf(ptr noundef %2, ptr noundef nonnull @.str.25, i32 noundef %3, ptr noundef nonnull @.str.20, i32 noundef %4, ptr noundef nonnull @.str.26, i64 noundef %17, i64 noundef %19) #11
  %21 = load i64, ptr %16, align 8, !tbaa !19
  %.not = icmp eq i64 %21, 0
  br i1 %.not, label %.loopexit, label %.lr.ph

.lr.ph:                                           ; preds = %13
  %22 = add nsw i32 %3, 3
  %23 = tail call i32 @llvm.smax.i32(i32 %4, i32 3)
  %24 = add nsw i32 %23, -3
  %25 = getelementptr inbounds nuw i8, ptr %1, i64 24
  br label %26

26:                                               ; preds = %.lr.ph, %26
  %.039 = phi i64 [ 0, %.lr.ph ], [ %45, %26 ]
  call void @llvm.lifetime.start.p0(i64 64, ptr nonnull %6) #11
  %27 = call i32 (ptr, i64, ptr, ...) @snprintf(ptr noundef nonnull dereferenceable(1) %6, i64 noundef 64, ptr noundef nonnull @.str.27, i64 noundef %.039) #11
  %28 = call i32 (ptr, ptr, ...) @fprintf(ptr noundef %2, ptr noundef nonnull @.str.28, i32 noundef %3, ptr noundef nonnull @.str.20, ptr noundef nonnull %6) #11
  %29 = load ptr, ptr %25, align 8, !tbaa !21
  %30 = getelementptr inbounds nuw %struct.H5O_efl_entry_t, ptr %29, i64 %.039, i32 1
  %31 = load ptr, ptr %30, align 8, !tbaa !26
  %32 = call i32 (ptr, ptr, ...) @fprintf(ptr noundef %2, ptr noundef nonnull @.str.29, i32 noundef %22, ptr noundef nonnull @.str.20, i32 noundef %24, ptr noundef nonnull @.str.30, ptr noundef %31) #11
  %33 = load ptr, ptr %25, align 8, !tbaa !21
  %34 = getelementptr inbounds nuw %struct.H5O_efl_entry_t, ptr %33, i64 %.039
  %35 = load i64, ptr %34, align 8, !tbaa !22
  %36 = call i32 (ptr, ptr, ...) @fprintf(ptr noundef %2, ptr noundef nonnull @.str.31, i32 noundef %22, ptr noundef nonnull @.str.20, i32 noundef %24, ptr noundef nonnull @.str.32, i64 noundef %35) #11
  %37 = load ptr, ptr %25, align 8, !tbaa !21
  %38 = getelementptr inbounds nuw %struct.H5O_efl_entry_t, ptr %37, i64 %.039, i32 2
  %39 = load i64, ptr %38, align 8, !tbaa !28
  %40 = call i32 (ptr, ptr, ...) @fprintf(ptr noundef %2, ptr noundef nonnull @.str.33, i32 noundef %22, ptr noundef nonnull @.str.20, i32 noundef %24, ptr noundef nonnull @.str.34, i64 noundef %39) #11
  %41 = load ptr, ptr %25, align 8, !tbaa !21
  %42 = getelementptr inbounds nuw %struct.H5O_efl_entry_t, ptr %41, i64 %.039, i32 3
  %43 = load i64, ptr %42, align 8, !tbaa !29
  %44 = call i32 (ptr, ptr, ...) @fprintf(ptr noundef %2, ptr noundef nonnull @.str.23, i32 noundef %22, ptr noundef nonnull @.str.20, i32 noundef %24, ptr noundef nonnull @.str.35, i64 noundef %43) #11
  call void @llvm.lifetime.end.p0(i64 64, ptr nonnull %6) #11
  %45 = add nuw i64 %.039, 1
  %46 = load i64, ptr %16, align 8, !tbaa !19
  %47 = icmp ult i64 %45, %46
  br i1 %47, label %26, label %.loopexit, !llvm.loop !45

.loopexit:                                        ; preds = %26, %13, %5
  ret i32 0
}